; ModuleID = '36/740.c'
source_filename = "36/740.c"
target datalayout = "e-m:e-p270:32:32-p271:32:32-p272:64:64-i64:64-f80:128-n8:16:32:64-S128"
target triple = "x86_64-pc-linux-gnu"

@.str = private unnamed_addr constant [4 x i8] c"YES\00", align 1
@.str.1 = private unnamed_addr constant [3 x i8] c"NO\00", align 1

; Function Attrs: noinline nounwind uwtable
define dso_local void @main() #0 {
  %1 = alloca i32, align 4
  %2 = alloca i32, align 4
  %3 = alloca i32, align 4
  %4 = alloca i32, align 4
  %5 = alloca i32, align 4
  %6 = alloca [10000 x i8], align 16
  %7 = alloca i8, align 1
  store i32 0, i32* %3, align 4
  store i32 0, i32* %4, align 4
  %8 = getelementptr inbounds [10000 x i8], [10000 x i8]* %6, i64 0, i64 0
  %9 = call i32 (i8*, ...) bitcast (i32 (...)* @gets to i32 (i8*, ...)*)(i8* %8)
  store i32 0, i32* %1, align 4
  br label %10

10:                                               ; preds = %17, %0
  %11 = load i32, i32* %1, align 4
  %12 = sext i32 %11 to i64
  %13 = getelementptr inbounds [10000 x i8], [10000 x i8]* %6, i64 0, i64 %12
  %14 = load i8, i8* %13, align 1
  %15 = sext i8 %14 to i32
  %16 = icmp ne i32 %15, 32
  br i1 %16, label %17, label %20

17:                                               ; preds = %10
  %18 = load i32, i32* %1, align 4
  %19 = add nsw i32 %18, 1
  store i32 %19, i32* %1, align 4
  br label %10

20:                                               ; preds = %10
  %21 = load i32, i32* %1, align 4
  %22 = add nsw i32 %21, 1
  store i32 %22, i32* %2, align 4
  br label %23

23:                                               ; preds = %30, %20
  %24 = load i32, i32* %2, align 4
  %25 = sext i32 %24 to i64
  %26 = getelementptr inbounds [10000 x i8], [10000 x i8]* %6, i64 0, i64 %25
  %27 = load i8, i8* %26, align 1
  %28 = sext i8 %27 to i32
  %29 = icmp ne i32 %28, 0
  br i1 %29, label %30, label %33

30:                                               ; preds = %23
  %31 = load i32, i32* %2, align 4
  %32 = add nsw i32 %31, 1
  store i32 %32, i32* %2, align 4
  br label %23

33:                                               ; preds = %23
  %34 = load i32, i32* %2, align 4
  %35 = load i32, i32* %1, align 4
  %36 = mul nsw i32 2, %35
  %37 = add nsw i32 %36, 1
  %38 = icmp eq i32 %34, %37
  br i1 %38, label %39, label %115

39:                                               ; preds = %33
  %40 = load i32, i32* %1, align 4
  %41 = add nsw i32 %40, 1
  store i32 %41, i32* %2, align 4
  br label %42

42:                                               ; preds = %113, %39
  %43 = load i32, i32* %2, align 4
  %44 = load i32, i32* %1, align 4
  %45 = mul nsw i32 2, %44
  %46 = add nsw i32 %45, 1
  %47 = icmp slt i32 %43, %46
  br i1 %47, label %48, label %114

48:                                               ; preds = %42
  %49 = load i32, i32* %2, align 4
  %50 = load i32, i32* %1, align 4
  %51 = sub nsw i32 %49, %50
  %52 = sub nsw i32 %51, 1
  store i32 %52, i32* %3, align 4
  store i32 0, i32* %5, align 4
  br label %53

53:                                               ; preds = %99, %48
  %54 = load i32, i32* %3, align 4
  %55 = load i32, i32* %1, align 4
  %56 = icmp slt i32 %54, %55
  br i1 %56, label %57, label %102

57:                                               ; preds = %53
  %58 = load i32, i32* %2, align 4
  %59 = sext i32 %58 to i64
  %60 = getelementptr inbounds [10000 x i8], [10000 x i8]* %6, i64 0, i64 %59
  %61 = load i8, i8* %60, align 1
  %62 = sext i8 %61 to i32
  %63 = load i32, i32* %3, align 4
  %64 = sext i32 %63 to i64
  %65 = getelementptr inbounds [10000 x i8], [10000 x i8]* %6, i64 0, i64 %64
  %66 = load i8, i8* %65, align 1
  %67 = sext i8 %66 to i32
  %68 = icmp eq i32 %62, %67
  br i1 %68, label %69, label %95

69:                                               ; preds = %57
  %70 = load i32, i32* %3, align 4
  %71 = sext i32 %70 to i64
  %72 = getelementptr inbounds [10000 x i8], [10000 x i8]* %6, i64 0, i64 %71
  %73 = load i8, i8* %72, align 1
  store i8 %73, i8* %7, align 1
  %74 = load i32, i32* %2, align 4
  %75 = load i32, i32* %1, align 4
  %76 = sub nsw i32 %74, %75
  %77 = sub nsw i32 %76, 1
  %78 = sext i32 %77 to i64
  %79 = getelementptr inbounds [10000 x i8], [10000 x i8]* %6, i64 0, i64 %78
  %80 = load i8, i8* %79, align 1
  %81 = load i32, i32* %3, align 4
  %82 = sext i32 %81 to i64
  %83 = getelementptr inbounds [10000 x i8], [10000 x i8]* %6, i64 0, i64 %82
  store i8 %80, i8* %83, align 1
  %84 = load i8, i8* %7, align 1
  %85 = load i32, i32* %2, align 4
  %86 = load i32, i32* %1, align 4
  %87 = sub nsw i32 %85, %86
  %88 = sub nsw i32 %87, 1
  %89 = sext i32 %88 to i64
  %90 = getelementptr inbounds [10000 x i8], [10000 x i8]* %6, i64 0, i64 %89
  store i8 %84, i8* %90, align 1
  %91 = load i32, i32* %4, align 4
  %92 = add nsw i32 %91, 1
  store i32 %92, i32* %4, align 4
  %93 = load i32, i32* %2, align 4
  %94 = add nsw i32 %93, 1
  store i32 %94, i32* %2, align 4
  store i32 0, i32* %5, align 4
  br label %98

95:                                               ; preds = %57
  %96 = load i32, i32* %5, align 4
  %97 = add nsw i32 %96, 1
  store i32 %97, i32* %5, align 4
  br label %98

98:                                               ; preds = %95, %69
  br label %99

99:                                               ; preds = %98
  %100 = load i32, i32* %3, align 4
  %101 = add nsw i32 %100, 1
  store i32 %101, i32* %3, align 4
  br label %53

102:                                              ; preds = %53
  %103 = load i32, i32* %5, align 4
  %104 = load i32, i32* %1, align 4
  %105 = mul nsw i32 2, %104
  %106 = add nsw i32 %105, 1
  %107 = load i32, i32* %2, align 4
  %108 = sub nsw i32 %106, %107
  %109 = icmp eq i32 %103, %108
  br i1 %109, label %110, label %113

110:                                              ; preds = %102
  %111 = load i32, i32* %2, align 4
  %112 = add nsw i32 %111, 1
  store i32 %112, i32* %2, align 4
  br label %113

113:                                              ; preds = %110, %102
  br label %42

114:                                              ; preds = %42
  br label %115

115:                                              ; preds = %114, %33
  %116 = load i32, i32* %4, align 4
  %117 = load i32, i32* %1, align 4
  %118 = icmp eq i32 %116, %117
  br i1 %118, label %119, label %121

119:                                              ; preds = %115
  %120 = call i32 (i8*, ...) @printf(i8* getelementptr inbounds ([4 x i8], [4 x i8]* @.str, i64 0, i64 0))
  br label %123

121:                                              ; preds = %115
  %122 = call i32 (i8*, ...) @printf(i8* getelementptr inbounds ([3 x i8], [3 x i8]* @.str.1, i64 0, i64 0))
  br label %123

123:                                              ; preds = %121, %119
  ret void
}

declare dso_local i32 @gets(...) #1

declare dso_local i32 @printf(i8*, ...) #1


!llvm.module.flags = !{!0}
!llvm.ident = !{!1}

!0 = !{i32 1, !"wchar_size", i32 4}
!1 = !{!"clang version 10.0.0-4ubuntu1 "}
